; Function Attrs: mustprogress uwtable
define noundef i32 @_ZNK6icu_7519FilteredNormalizer217spanQuickCheckYesERKNS_13UnicodeStringER10UErrorCode(ptr nocapture noundef nonnull readonly align 8 dereferenceable(24) %this, ptr noundef nonnull align 8 dereferenceable(64) %s, ptr noundef nonnull align 4 dereferenceable(4) %errorCode) unnamed_addr #2 align 2 personality ptr @__gxx_personality_v0 {
entry:
  %ref.tmp = alloca %"class.icu_75::UnicodeString", align 8
  %0 = load i32, ptr %errorCode, align 4
  %cmp.i.i = icmp sgt i32 %0, 0
  br i1 %cmp.i.i, label %return, label %land.lhs.true.i

land.lhs.true.i:                                  ; preds = %entry
  %fUnion.i.i = getelementptr inbounds i8, ptr %s, i64 8
  %1 = load i16, ptr %fUnion.i.i, align 8
  %conv2.i2.i = and i16 %1, 1
  %tobool2.not.i = icmp eq i16 %conv2.i2.i, 0
  br i1 %tobool2.not.i, label %for.cond.preheader, label %if.then.i

if.then.i:                                        ; preds = %land.lhs.true.i
  store i32 1, ptr %errorCode, align 4
  br label %return

for.cond.preheader:                               ; preds = %land.lhs.true.i
  %fUnion.i.i15 = getelementptr inbounds i8, ptr %s, i64 8
  %fLength.i = getelementptr inbounds i8, ptr %s, i64 12
  %2 = load i16, ptr %fUnion.i.i15, align 8
  %cmp.i.i1626 = icmp slt i16 %2, 0
  %3 = ashr i16 %2, 5
  %shr.i.i27 = sext i16 %3 to i32
  %4 = load i32, ptr %fLength.i, align 4
  %cond.i28 = select i1 %cmp.i.i1626, i32 %4, i32 %shr.i.i27
  %cmp29 = icmp sgt i32 %cond.i28, 0
  br i1 %cmp29, label %for.body.lr.ph, label %return

for.body.lr.ph:                                   ; preds = %for.cond.preheader
  %set = getelementptr inbounds i8, ptr %this, i64 16
  %fBuffer.i.i = getelementptr inbounds i8, ptr %s, i64 10
  %fArray.i.i = getelementptr inbounds i8, ptr %s, i64 24
  %norm2 = getelementptr inbounds i8, ptr %this, i64 8
  br label %for.body

for.body:                                         ; preds = %for.body.lr.ph, %if.end12
  %cond.i32 = phi i32 [ %cond.i28, %for.body.lr.ph ], [ %cond.i, %if.end12 ]
  %5 = phi i16 [ %2, %for.body.lr.ph ], [ %12, %if.end12 ]
  %spanCondition.031 = phi i32 [ 2, %for.body.lr.ph ], [ %spanCondition.1, %if.end12 ]
  %prevSpanLimit.030 = phi i32 [ 0, %for.body.lr.ph ], [ %add.i, %if.end12 ]
  %6 = load ptr, ptr %set, align 8
  %conv1.i.i = zext i16 %5 to i32
  %and.i.i = and i32 %conv1.i.i, 17
  %tobool.not.i.i = icmp eq i32 %and.i.i, 0
  %and5.i.i = and i32 %conv1.i.i, 2
  %tobool6.not.i.i = icmp eq i32 %and5.i.i, 0
  %7 = load ptr, ptr %fArray.i.i, align 8
  %spec.select = select i1 %tobool6.not.i.i, ptr %7, ptr %fBuffer.i.i
  %retval.0.i.i = select i1 %tobool.not.i.i, ptr %spec.select, ptr null
  %start.addr.0.i = call i32 @llvm.smax.i32(i32 %prevSpanLimit.030, i32 0)
  %idx.ext.i = zext nneg i32 %start.addr.0.i to i64
  %add.ptr.i = getelementptr inbounds i16, ptr %retval.0.i.i, i64 %idx.ext.i
  %sub.i = sub nsw i32 %cond.i32, %start.addr.0.i
  %call6.i = call noundef i32 @_ZNK6icu_7510UnicodeSet4spanEPKDsi17USetSpanCondition(ptr noundef nonnull align 8 dereferenceable(200) %6, ptr noundef %add.ptr.i, i32 noundef %sub.i, i32 noundef %spanCondition.031)
  %add.i = add nsw i32 %call6.i, %start.addr.0.i
  %cmp4 = icmp eq i32 %spanCondition.031, 0
  br i1 %cmp4, label %if.end12, label %if.else

if.else:                                          ; preds = %for.body
  %8 = load ptr, ptr %norm2, align 8
  %sub.i18 = sub nsw i32 %add.i, %prevSpanLimit.030
  call void @_ZNK6icu_7513UnicodeString13tempSubStringEii(ptr nonnull sret(%"class.icu_75::UnicodeString") align 8 %ref.tmp, ptr noundef nonnull align 8 dereferenceable(64) %s, i32 noundef %prevSpanLimit.030, i32 noundef %sub.i18)
  %vtable = load ptr, ptr %8, align 8
  %vfn = getelementptr inbounds i8, ptr %vtable, i64 112
  %9 = load ptr, ptr %vfn, align 8
  %call6 = invoke noundef i32 %9(ptr noundef nonnull align 8 dereferenceable(8) %8, ptr noundef nonnull align 8 dereferenceable(64) %ref.tmp, ptr noundef nonnull align 4 dereferenceable(4) %errorCode)
          to label %invoke.cont unwind label %lpad

invoke.cont:                                      ; preds = %if.else
  %add = add nsw i32 %call6, %prevSpanLimit.030
  call void @_ZN6icu_7513UnicodeStringD1Ev(ptr noundef nonnull align 8 dereferenceable(64) %ref.tmp) #5
  %10 = load i32, ptr %errorCode, align 4
  %cmp.i19 = icmp sgt i32 %10, 0
  %cmp9 = icmp slt i32 %add, %add.i
  %or.cond = select i1 %cmp.i19, i1 true, i1 %cmp9
  br i1 %or.cond, label %return, label %if.end12

lpad:                                             ; preds = %if.else
  %11 = landingpad { ptr, i32 }
          cleanup
  call void @_ZN6icu_7513UnicodeStringD1Ev(ptr noundef nonnull align 8 dereferenceable(64) %ref.tmp) #5
  resume { ptr, i32 } %11

if.end12:                                         ; preds = %invoke.cont, %for.body
  %spanCondition.1 = phi i32 [ 2, %for.body ], [ 0, %invoke.cont ]
  %12 = load i16, ptr %fUnion.i.i15, align 8
  %cmp.i.i16 = icmp slt i16 %12, 0
  %13 = ashr i16 %12, 5
  %shr.i.i = sext i16 %13 to i32
  %14 = load i32, ptr %fLength.i, align 4
  %cond.i = select i1 %cmp.i.i16, i32 %14, i32 %shr.i.i
  %cmp = icmp slt i32 %add.i, %cond.i
  br i1 %cmp, label %for.body, label %return, !llvm.loop !10

return:                                           ; preds = %invoke.cont, %if.end12, %if.then.i, %entry, %for.cond.preheader
  %retval.0 = phi i32 [ %cond.i28, %for.cond.preheader ], [ 0, %entry ], [ 0, %if.then.i ], [ %add, %invoke.cont ], [ %cond.i, %if.end12 ]
  ret i32 %retval.0
}